(dp0
S'ET'
p1
(dp2
S'recall'
p3
cnumpy.core.multiarray
scalar
p4
(cnumpy
dtype
p5
(S'f8'
p6
I0
I1
tp7
Rp8
(I3
S'<'
p9
NNNI-1
I-1
I0
tp10
bS'J\xd2\t)\x1c\xe3\xe9?'
p11
tp12
Rp13
sS'fp_norm'
p14
g4
(g8
S'6\x92\x83ne\xda\xca?'
p15
tp16
Rp17
sS'fn_norm'
p18
g4
(g8
S'\x8d\xd2\\L&y\xc8?'
p19
tp20
Rp21
sS'prec'
p22
g4
(g8
S'7\x99\x80\x81\x85p\xe9?'
p23
tp24
Rp25
ssS'SVC'
p26
(dp27
g3
g4
(g8
S'\xb0\x864Do\x1f\xeb?'
p28
tp29
Rp30
sg14
g4
(g8
S'b\xfd\xf2\xa2k\x0f\xd2?'
p31
tp32
Rp33
sg18
g4
(g8
S'\x0e\x94r\x89O\xfe\xc3?'
p34
tp35
Rp36
sg22
g4
(g8
S'\x9a\xdeAv\xcfe\xe8?'
p37
tp38
Rp39
ss.